; Function Attrs: mustprogress uwtable
define noundef zeroext i1 @_ZN6google8protobuf2io18StringOutputStream4NextEPPvPi(ptr nocapture noundef nonnull readonly align 8 dereferenceable(16) %0, ptr nocapture noundef writeonly %1, ptr nocapture noundef writeonly %2) unnamed_addr #5 align 2 personality ptr @__gxx_personality_v0 {
  %4 = alloca %"class.google::protobuf::internal::LogMessage", align 8
  %5 = alloca %"class.google::protobuf::internal::LogFinisher", align 1
  %6 = getelementptr inbounds i8, ptr %0, i64 8
  %7 = load ptr, ptr %6, align 8
  %.not = icmp eq ptr %7, null
  br i1 %.not, label %8, label %.critedge

8:                                                ; preds = %3
  call void @_ZN6google8protobuf8internal10LogMessageC1ENS0_8LogLevelEPKci(ptr noundef nonnull align 8 dereferenceable(56) %4, i32 noundef 3, ptr noundef nonnull @.str, i32 noundef 142)
  %9 = invoke noundef nonnull align 8 dereferenceable(56) ptr @_ZN6google8protobuf8internal10LogMessagelsEPKc(ptr noundef nonnull align 8 dereferenceable(56) %4, ptr noundef nonnull @.str.5)
          to label %10 unwind label %20

10:                                               ; preds = %8
  invoke void @_ZN6google8protobuf8internal11LogFinisheraSERNS1_10LogMessageE(ptr noundef nonnull align 1 dereferenceable(1) %5, ptr noundef nonnull align 8 dereferenceable(56) %9)
          to label %11 unwind label %20

11:                                               ; preds = %10
  call void @_ZN6google8protobuf8internal10LogMessageD1Ev(ptr noundef nonnull align 8 dereferenceable(56) %4) #16
  %.pre = load ptr, ptr %6, align 8
  br label %.critedge

.critedge:                                        ; preds = %3, %11
  %12 = phi ptr [ %7, %3 ], [ %.pre, %11 ]
  %13 = call noundef i64 @_ZNKSt7__cxx1112basic_stringIcSt11char_traitsIcESaIcEE4sizeEv(ptr noundef nonnull align 8 dereferenceable(32) %12) #16
  %14 = load ptr, ptr %6, align 8
  %15 = call noundef i64 @_ZNKSt7__cxx1112basic_stringIcSt11char_traitsIcESaIcEE8capacityEv(ptr noundef nonnull align 8 dereferenceable(32) %14) #16
  %16 = icmp ult i64 %13, %15
  br i1 %16, label %17, label %22

17:                                               ; preds = %.critedge
  %18 = load ptr, ptr %6, align 8
  %19 = call noundef i64 @_ZNKSt7__cxx1112basic_stringIcSt11char_traitsIcESaIcEE8capacityEv(ptr noundef nonnull align 8 dereferenceable(32) %18) #16
  br label %24

20:                                               ; preds = %10, %8
  %21 = landingpad { ptr, i32 }
          cleanup
  call void @_ZN6google8protobuf8internal10LogMessageD1Ev(ptr noundef nonnull align 8 dereferenceable(56) %4) #16
  resume { ptr, i32 } %21

22:                                               ; preds = %.critedge
  %23 = shl i64 %13, 1
  br label %24

24:                                               ; preds = %22, %17
  %storemerge = phi i64 [ %23, %22 ], [ %19, %17 ]
  %25 = add i64 %13, 2147483647
  %.sroa.speculated15 = call i64 @llvm.umin.i64(i64 %25, i64 %storemerge)
  %26 = load ptr, ptr %6, align 8
  %.sroa.speculated = call i64 @llvm.umax.i64(i64 %.sroa.speculated15, i64 16)
  call void @_ZNSt7__cxx1112basic_stringIcSt11char_traitsIcESaIcEE6resizeEm(ptr noundef nonnull align 8 dereferenceable(32) %26, i64 noundef %.sroa.speculated)
  %27 = load ptr, ptr %6, align 8
  %28 = call noundef nonnull align 1 dereferenceable(1) ptr @_ZNSt7__cxx1112basic_stringIcSt11char_traitsIcESaIcEEixEm(ptr noundef nonnull align 8 dereferenceable(32) %27, i64 noundef 0)
  %29 = getelementptr inbounds i8, ptr %28, i64 %13
  store ptr %29, ptr %1, align 8
  %30 = load ptr, ptr %6, align 8
  %31 = call noundef i64 @_ZNKSt7__cxx1112basic_stringIcSt11char_traitsIcESaIcEE4sizeEv(ptr noundef nonnull align 8 dereferenceable(32) %30) #16
  %32 = sub i64 %31, %13
  %33 = trunc i64 %32 to i32
  store i32 %33, ptr %2, align 4
  ret i1 true
}